(dp0
S'qual'
p1
(dp2
S'11'
p3
(dp4
S'paired'
p5
(lp6
(I166
I206
I227
tp7
a(I31
I120
I180
tp8
a(I178
I223
I138
tp9
a(I51
I160
I44
tp10
a(I251
I154
I153
tp11
a(I227
I26
I28
tp12
a(I253
I191
I111
tp13
a(I255
I127
I0
tp14
a(I202
I178
I214
tp15
a(I106
I61
I154
tp16
a(I255
I255
I153
tp17
asS'set3'
p18
(lp19
(I141
I211
I199
tp20
a(I255
I255
I179
tp21
a(I190
I186
I218
tp22
a(I251
I128
I114
tp23
a(I128
I177
I211
tp24
a(I253
I180
I98
tp25
a(I179
I222
I105
tp26
a(I252
I205
I229
tp27
a(I217
I217
I217
tp28
a(I188
I128
I189
tp29
a(I204
I235
I197
tp30
assS'10'
p31
(dp32
S'paired'
p33
(lp34
(I166
I206
I227
tp35
a(I31
I120
I180
tp36
a(I178
I223
I138
tp37
a(I51
I160
I44
tp38
a(I251
I154
I153
tp39
a(I227
I26
I28
tp40
a(I253
I191
I111
tp41
a(I255
I127
I0
tp42
a(I202
I178
I214
tp43
a(I106
I61
I154
tp44
asS'set3'
p45
(lp46
(I141
I211
I199
tp47
a(I255
I255
I179
tp48
a(I190
I186
I218
tp49
a(I251
I128
I114
tp50
a(I128
I177
I211
tp51
a(I253
I180
I98
tp52
a(I179
I222
I105
tp53
a(I252
I205
I229
tp54
a(I217
I217
I217
tp55
a(I188
I128
I189
tp56
assS'12'
p57
(dp58
S'paired'
p59
(lp60
(I166
I206
I227
tp61
a(I31
I120
I180
tp62
a(I178
I223
I138
tp63
a(I51
I160
I44
tp64
a(I251
I154
I153
tp65
a(I227
I26
I28
tp66
a(I253
I191
I111
tp67
a(I255
I127
I0
tp68
a(I202
I178
I214
tp69
a(I106
I61
I154
tp70
a(I255
I255
I153
tp71
a(I177
I89
I40
tp72
asS'set3'
p73
(lp74
(I141
I211
I199
tp75
a(I255
I255
I179
tp76
a(I190
I186
I218
tp77
a(I251
I128
I114
tp78
a(I128
I177
I211
tp79
a(I253
I180
I98
tp80
a(I179
I222
I105
tp81
a(I252
I205
I229
tp82
a(I217
I217
I217
tp83
a(I188
I128
I189
tp84
a(I204
I235
I197
tp85
a(I255
I237
I111
tp86
assS'3'
p87
(dp88
S'pastel2'
p89
(lp90
(I179
I226
I205
tp91
a(I253
I205
I172
tp92
a(I203
I213
I232
tp93
asS'pastel1'
p94
(lp95
(I251
I180
I174
tp96
a(I179
I205
I227
tp97
a(I204
I235
I197
tp98
asS'dark2'
p99
(lp100
(I27
I158
I119
tp101
a(I217
I95
I2
tp102
a(I117
I112
I179
tp103
asS'accent'
p104
(lp105
(I127
I201
I127
tp106
a(I190
I174
I212
tp107
a(I253
I192
I134
tp108
asS'paired'
p109
(lp110
(I166
I206
I227
tp111
a(I31
I120
I180
tp112
a(I178
I223
I138
tp113
asS'set1'
p114
(lp115
(I228
I26
I28
tp116
a(I55
I126
I184
tp117
a(I77
I175
I74
tp118
asS'set2'
p119
(lp120
(I102
I194
I165
tp121
a(I252
I141
I98
tp122
a(I141
I160
I203
tp123
asS'set3'
p124
(lp125
(I141
I211
I199
tp126
a(I255
I255
I179
tp127
a(I190
I186
I218
tp128
assS'5'
p129
(dp130
S'pastel2'
p131
(lp132
(I179
I226
I205
tp133
a(I253
I205
I172
tp134
a(I203
I213
I232
tp135
a(I244
I202
I228
tp136
a(I230
I245
I201
tp137
asS'pastel1'
p138
(lp139
(I251
I180
I174
tp140
a(I179
I205
I227
tp141
a(I204
I235
I197
tp142
a(I222
I203
I228
tp143
a(I254
I217
I166
tp144
asS'dark2'
p145
(lp146
(I27
I158
I119
tp147
a(I217
I95
I2
tp148
a(I117
I112
I179
tp149
a(I231
I41
I138
tp150
a(I102
I166
I30
tp151
asS'accent'
p152
(lp153
(I127
I201
I127
tp154
a(I190
I174
I212
tp155
a(I253
I192
I134
tp156
a(I255
I255
I153
tp157
a(I56
I108
I176
tp158
asS'paired'
p159
(lp160
(I166
I206
I227
tp161
a(I31
I120
I180
tp162
a(I178
I223
I138
tp163
a(I51
I160
I44
tp164
a(I251
I154
I153
tp165
asS'set1'
p166
(lp167
(I228
I26
I28
tp168
a(I55
I126
I184
tp169
a(I77
I175
I74
tp170
a(I152
I78
I163
tp171
a(I255
I127
I0
tp172
asS'set2'
p173
(lp174
(I102
I194
I165
tp175
a(I252
I141
I98
tp176
a(I141
I160
I203
tp177
a(I231
I138
I195
tp178
a(I166
I216
I84
tp179
asS'set3'
p180
(lp181
(I141
I211
I199
tp182
a(I255
I255
I179
tp183
a(I190
I186
I218
tp184
a(I251
I128
I114
tp185
a(I128
I177
I211
tp186
assS'4'
p187
(dp188
S'pastel2'
p189
(lp190
(I179
I226
I205
tp191
a(I253
I205
I172
tp192
a(I203
I213
I232
tp193
a(I244
I202
I228
tp194
asS'pastel1'
p195
(lp196
(I251
I180
I174
tp197
a(I179
I205
I227
tp198
a(I204
I235
I197
tp199
a(I222
I203
I228
tp200
asS'dark2'
p201
(lp202
(I27
I158
I119
tp203
a(I217
I95
I2
tp204
a(I117
I112
I179
tp205
a(I231
I41
I138
tp206
asS'accent'
p207
(lp208
(I127
I201
I127
tp209
a(I190
I174
I212
tp210
a(I253
I192
I134
tp211
a(I255
I255
I153
tp212
asS'paired'
p213
(lp214
(I166
I206
I227
tp215
a(I31
I120
I180
tp216
a(I178
I223
I138
tp217
a(I51
I160
I44
tp218
asS'set1'
p219
(lp220
(I228
I26
I28
tp221
a(I55
I126
I184
tp222
a(I77
I175
I74
tp223
a(I152
I78
I163
tp224
asS'set2'
p225
(lp226
(I102
I194
I165
tp227
a(I252
I141
I98
tp228
a(I141
I160
I203
tp229
a(I231
I138
I195
tp230
asS'set3'
p231
(lp232
(I141
I211
I199
tp233
a(I255
I255
I179
tp234
a(I190
I186
I218
tp235
a(I251
I128
I114
tp236
assS'7'
p237
(dp238
S'pastel2'
p239
(lp240
(I179
I226
I205
tp241
a(I253
I205
I172
tp242
a(I203
I213
I232
tp243
a(I244
I202
I228
tp244
a(I230
I245
I201
tp245
a(I255
I242
I174
tp246
a(I241
I226
I204
tp247
asS'pastel1'
p248
(lp249
(I251
I180
I174
tp250
a(I179
I205
I227
tp251
a(I204
I235
I197
tp252
a(I222
I203
I228
tp253
a(I254
I217
I166
tp254
a(I255
I255
I204
tp255
a(I229
I216
I189
tp256
asS'dark2'
p257
(lp258
(I27
I158
I119
tp259
a(I217
I95
I2
tp260
a(I117
I112
I179
tp261
a(I231
I41
I138
tp262
a(I102
I166
I30
tp263
a(I230
I171
I2
tp264
a(I166
I118
I29
tp265
asS'accent'
p266
(lp267
(I127
I201
I127
tp268
a(I190
I174
I212
tp269
a(I253
I192
I134
tp270
a(I255
I255
I153
tp271
a(I56
I108
I176
tp272
a(I240
I2
I127
tp273
a(I191
I91
I23
tp274
asS'paired'
p275
(lp276
(I166
I206
I227
tp277
a(I31
I120
I180
tp278
a(I178
I223
I138
tp279
a(I51
I160
I44
tp280
a(I251
I154
I153
tp281
a(I227
I26
I28
tp282
a(I253
I191
I111
tp283
asS'set1'
p284
(lp285
(I228
I26
I28
tp286
a(I55
I126
I184
tp287
a(I77
I175
I74
tp288
a(I152
I78
I163
tp289
a(I255
I127
I0
tp290
a(I255
I255
I51
tp291
a(I166
I86
I40
tp292
asS'set2'
p293
(lp294
(I102
I194
I165
tp295
a(I252
I141
I98
tp296
a(I141
I160
I203
tp297
a(I231
I138
I195
tp298
a(I166
I216
I84
tp299
a(I255
I217
I47
tp300
a(I229
I196
I148
tp301
asS'set3'
p302
(lp303
(I141
I211
I199
tp304
a(I255
I255
I179
tp305
a(I190
I186
I218
tp306
a(I251
I128
I114
tp307
a(I128
I177
I211
tp308
a(I253
I180
I98
tp309
a(I179
I222
I105
tp310
assS'6'
p311
(dp312
S'pastel2'
p313
(lp314
(I179
I226
I205
tp315
a(I253
I205
I172
tp316
a(I203
I213
I232
tp317
a(I244
I202
I228
tp318
a(I230
I245
I201
tp319
a(I255
I242
I174
tp320
asS'pastel1'
p321
(lp322
(I251
I180
I174
tp323
a(I179
I205
I227
tp324
a(I204
I235
I197
tp325
a(I222
I203
I228
tp326
a(I254
I217
I166
tp327
a(I255
I255
I204
tp328
asS'dark2'
p329
(lp330
(I27
I158
I119
tp331
a(I217
I95
I2
tp332
a(I117
I112
I179
tp333
a(I231
I41
I138
tp334
a(I102
I166
I30
tp335
a(I230
I171
I2
tp336
asS'accent'
p337
(lp338
(I127
I201
I127
tp339
a(I190
I174
I212
tp340
a(I253
I192
I134
tp341
a(I255
I255
I153
tp342
a(I56
I108
I176
tp343
a(I240
I2
I127
tp344
asS'paired'
p345
(lp346
(I166
I206
I227
tp347
a(I31
I120
I180
tp348
a(I178
I223
I138
tp349
a(I51
I160
I44
tp350
a(I251
I154
I153
tp351
a(I227
I26
I28
tp352
asS'set1'
p353
(lp354
(I228
I26
I28
tp355
a(I55
I126
I184
tp356
a(I77
I175
I74
tp357
a(I152
I78
I163
tp358
a(I255
I127
I0
tp359
a(I255
I255
I51
tp360
asS'set2'
p361
(lp362
(I102
I194
I165
tp363
a(I252
I141
I98
tp364
a(I141
I160
I203
tp365
a(I231
I138
I195
tp366
a(I166
I216
I84
tp367
a(I255
I217
I47
tp368
asS'set3'
p369
(lp370
(I141
I211
I199
tp371
a(I255
I255
I179
tp372
a(I190
I186
I218
tp373
a(I251
I128
I114
tp374
a(I128
I177
I211
tp375
a(I253
I180
I98
tp376
assS'9'
p377
(dp378
S'paired'
p379
(lp380
(I166
I206
I227
tp381
a(I31
I120
I180
tp382
a(I178
I223
I138
tp383
a(I51
I160
I44
tp384
a(I251
I154
I153
tp385
a(I227
I26
I28
tp386
a(I253
I191
I111
tp387
a(I255
I127
I0
tp388
a(I202
I178
I214
tp389
asS'pastel1'
p390
(lp391
(I251
I180
I174
tp392
a(I179
I205
I227
tp393
a(I204
I235
I197
tp394
a(I222
I203
I228
tp395
a(I254
I217
I166
tp396
a(I255
I255
I204
tp397
a(I229
I216
I189
tp398
a(I253
I218
I236
tp399
a(I242
I242
I242
tp400
asS'set1'
p401
(lp402
(I228
I26
I28
tp403
a(I55
I126
I184
tp404
a(I77
I175
I74
tp405
a(I152
I78
I163
tp406
a(I255
I127
I0
tp407
a(I255
I255
I51
tp408
a(I166
I86
I40
tp409
a(I247
I129
I191
tp410
a(I153
I153
I153
tp411
asS'set3'
p412
(lp413
(I141
I211
I199
tp414
a(I255
I255
I179
tp415
a(I190
I186
I218
tp416
a(I251
I128
I114
tp417
a(I128
I177
I211
tp418
a(I253
I180
I98
tp419
a(I179
I222
I105
tp420
a(I252
I205
I229
tp421
a(I217
I217
I217
tp422
assS'8'
p423
(dp424
S'pastel2'
p425
(lp426
(I179
I226
I205
tp427
a(I253
I205
I172
tp428
a(I203
I213
I232
tp429
a(I244
I202
I228
tp430
a(I230
I245
I201
tp431
a(I255
I242
I174
tp432
a(I241
I226
I204
tp433
a(I204
I204
I204
tp434
asS'pastel1'
p435
(lp436
(I251
I180
I174
tp437
a(I179
I205
I227
tp438
a(I204
I235
I197
tp439
a(I222
I203
I228
tp440
a(I254
I217
I166
tp441
a(I255
I255
I204
tp442
a(I229
I216
I189
tp443
a(I253
I218
I236
tp444
asS'dark2'
p445
(lp446
(I27
I158
I119
tp447
a(I217
I95
I2
tp448
a(I117
I112
I179
tp449
a(I231
I41
I138
tp450
a(I102
I166
I30
tp451
a(I230
I171
I2
tp452
a(I166
I118
I29
tp453
a(I102
I102
I102
tp454
asS'accent'
p455
(lp456
(I127
I201
I127
tp457
a(I190
I174
I212
tp458
a(I253
I192
I134
tp459
a(I255
I255
I153
tp460
a(I56
I108
I176
tp461
a(I240
I2
I127
tp462
a(I191
I91
I23
tp463
a(I102
I102
I102
tp464
asS'paired'
p465
(lp466
(I166
I206
I227
tp467
a(I31
I120
I180
tp468
a(I178
I223
I138
tp469
a(I51
I160
I44
tp470
a(I251
I154
I153
tp471
a(I227
I26
I28
tp472
a(I253
I191
I111
tp473
a(I255
I127
I0
tp474
asS'set1'
p475
(lp476
(I228
I26
I28
tp477
a(I55
I126
I184
tp478
a(I77
I175
I74
tp479
a(I152
I78
I163
tp480
a(I255
I127
I0
tp481
a(I255
I255
I51
tp482
a(I166
I86
I40
tp483
a(I247
I129
I191
tp484
asS'set2'
p485
(lp486
(I102
I194
I165
tp487
a(I252
I141
I98
tp488
a(I141
I160
I203
tp489
a(I231
I138
I195
tp490
a(I166
I216
I84
tp491
a(I255
I217
I47
tp492
a(I229
I196
I148
tp493
a(I179
I179
I179
tp494
asS'set3'
p495
(lp496
(I141
I211
I199
tp497
a(I255
I255
I179
tp498
a(I190
I186
I218
tp499
a(I251
I128
I114
tp500
a(I128
I177
I211
tp501
a(I253
I180
I98
tp502
a(I179
I222
I105
tp503
a(I252
I205
I229
tp504
asssS'div'
p505
(dp506
S'11'
p507
(dp508
S'spectral'
p509
(lp510
(I158
I1
I66
tp511
a(I213
I62
I79
tp512
a(I244
I109
I67
tp513
a(I253
I174
I97
tp514
a(I254
I224
I139
tp515
a(I255
I255
I191
tp516
a(I230
I245
I152
tp517
a(I171
I221
I164
tp518
a(I102
I194
I165
tp519
a(I50
I136
I189
tp520
a(I94
I79
I162
tp521
asS'rdylgn'
p522
(lp523
(I165
I0
I38
tp524
a(I215
I48
I39
tp525
a(I244
I109
I67
tp526
a(I253
I174
I97
tp527
a(I254
I224
I139
tp528
a(I255
I255
I191
tp529
a(I217
I239
I139
tp530
a(I166
I217
I106
tp531
a(I102
I189
I99
tp532
a(I26
I152
I80
tp533
a(I0
I104
I55
tp534
asS'prgn'
p535
(lp536
(I64
I0
I75
tp537
a(I118
I42
I131
tp538
a(I153
I112
I171
tp539
a(I194
I165
I207
tp540
a(I231
I212
I232
tp541
a(I247
I247
I247
tp542
a(I217
I240
I211
tp543
a(I166
I219
I160
tp544
a(I90
I174
I97
tp545
a(I27
I120
I55
tp546
a(I0
I68
I27
tp547
asS'rdbu'
p548
(lp549
(I103
I0
I31
tp550
a(I178
I24
I43
tp551
a(I214
I96
I77
tp552
a(I244
I165
I130
tp553
a(I253
I219
I199
tp554
a(I247
I247
I247
tp555
a(I209
I229
I240
tp556
a(I146
I197
I222
tp557
a(I67
I147
I195
tp558
a(I33
I102
I172
tp559
a(I5
I48
I97
tp560
asS'rdgy'
p561
(lp562
(I103
I0
I31
tp563
a(I178
I24
I43
tp564
a(I214
I96
I77
tp565
a(I244
I165
I130
tp566
a(I253
I219
I199
tp567
a(I255
I255
I255
tp568
a(I224
I224
I224
tp569
a(I186
I186
I186
tp570
a(I135
I135
I135
tp571
a(I77
I77
I77
tp572
a(I26
I26
I26
tp573
asS'rdylbu'
p574
(lp575
(I165
I0
I38
tp576
a(I215
I48
I39
tp577
a(I244
I109
I67
tp578
a(I253
I174
I97
tp579
a(I254
I224
I144
tp580
a(I255
I255
I191
tp581
a(I224
I243
I248
tp582
a(I171
I217
I233
tp583
a(I116
I173
I209
tp584
a(I69
I117
I180
tp585
a(I49
I54
I149
tp586
asS'piyg'
p587
(lp588
(I142
I1
I82
tp589
a(I197
I27
I125
tp590
a(I222
I119
I174
tp591
a(I241
I182
I218
tp592
a(I253
I224
I239
tp593
a(I247
I247
I247
tp594
a(I230
I245
I208
tp595
a(I184
I225
I134
tp596
a(I127
I188
I65
tp597
a(I77
I146
I33
tp598
a(I39
I100
I25
tp599
asS'puor'
p600
(lp601
(I127
I59
I8
tp602
a(I179
I88
I6
tp603
a(I224
I130
I20
tp604
a(I253
I184
I99
tp605
a(I254
I224
I182
tp606
a(I247
I247
I247
tp607
a(I216
I218
I235
tp608
a(I178
I171
I210
tp609
a(I128
I115
I172
tp610
a(I84
I39
I136
tp611
a(I45
I0
I75
tp612
asS'brbg'
p613
(lp614
(I84
I48
I5
tp615
a(I140
I81
I10
tp616
a(I191
I129
I45
tp617
a(I223
I194
I125
tp618
a(I246
I232
I195
tp619
a(I245
I245
I245
tp620
a(I199
I234
I229
tp621
a(I128
I205
I193
tp622
a(I53
I151
I143
tp623
a(I1
I102
I94
tp624
a(I0
I60
I48
tp625
assS'10'
p626
(dp627
S'spectral'
p628
(lp629
(I158
I1
I66
tp630
a(I213
I62
I79
tp631
a(I244
I109
I67
tp632
a(I253
I174
I97
tp633
a(I254
I224
I139
tp634
a(I230
I245
I152
tp635
a(I171
I221
I164
tp636
a(I102
I194
I165
tp637
a(I50
I136
I189
tp638
a(I94
I79
I162
tp639
asS'rdylgn'
p640
(lp641
(I165
I0
I38
tp642
a(I215
I48
I39
tp643
a(I244
I109
I67
tp644
a(I253
I174
I97
tp645
a(I254
I224
I139
tp646
a(I217
I239
I139
tp647
a(I166
I217
I106
tp648
a(I102
I189
I99
tp649
a(I26
I152
I80
tp650
a(I0
I104
I55
tp651
asS'prgn'
p652
(lp653
(I64
I0
I75
tp654
a(I118
I42
I131
tp655
a(I153
I112
I171
tp656
a(I194
I165
I207
tp657
a(I231
I212
I232
tp658
a(I217
I240
I211
tp659
a(I166
I219
I160
tp660
a(I90
I174
I97
tp661
a(I27
I120
I55
tp662
a(I0
I68
I27
tp663
asS'rdbu'
p664
(lp665
(I103
I0
I31
tp666
a(I178
I24
I43
tp667
a(I214
I96
I77
tp668
a(I244
I165
I130
tp669
a(I253
I219
I199
tp670
a(I209
I229
I240
tp671
a(I146
I197
I222
tp672
a(I67
I147
I195
tp673
a(I33
I102
I172
tp674
a(I5
I48
I97
tp675
asS'rdgy'
p676
(lp677
(I103
I0
I31
tp678
a(I178
I24
I43
tp679
a(I214
I96
I77
tp680
a(I244
I165
I130
tp681
a(I253
I219
I199
tp682
a(I224
I224
I224
tp683
a(I186
I186
I186
tp684
a(I135
I135
I135
tp685
a(I77
I77
I77
tp686
a(I26
I26
I26
tp687
asS'rdylbu'
p688
(lp689
(I165
I0
I38
tp690
a(I215
I48
I39
tp691
a(I244
I109
I67
tp692
a(I253
I174
I97
tp693
a(I254
I224
I144
tp694
a(I224
I243
I248
tp695
a(I171
I217
I233
tp696
a(I116
I173
I209
tp697
a(I69
I117
I180
tp698
a(I49
I54
I149
tp699
asS'piyg'
p700
(lp701
(I142
I1
I82
tp702
a(I197
I27
I125
tp703
a(I222
I119
I174
tp704
a(I241
I182
I218
tp705
a(I253
I224
I239
tp706
a(I230
I245
I208
tp707
a(I184
I225
I134
tp708
a(I127
I188
I65
tp709
a(I77
I146
I33
tp710
a(I39
I100
I25
tp711
asS'puor'
p712
(lp713
(I127
I59
I8
tp714
a(I179
I88
I6
tp715
a(I224
I130
I20
tp716
a(I253
I184
I99
tp717
a(I254
I224
I182
tp718
a(I216
I218
I235
tp719
a(I178
I171
I210
tp720
a(I128
I115
I172
tp721
a(I84
I39
I136
tp722
a(I45
I0
I75
tp723
asS'brbg'
p724
(lp725
(I84
I48
I5
tp726
a(I140
I81
I10
tp727
a(I191
I129
I45
tp728
a(I223
I194
I125
tp729
a(I246
I232
I195
tp730
a(I199
I234
I229
tp731
a(I128
I205
I193
tp732
a(I53
I151
I143
tp733
a(I1
I102
I94
tp734
a(I0
I60
I48
tp735
assS'15'
p736
(dp737
S'spectral'
p738
(lp739
(I158
I1
I66
tp740
a(I213
I62
I79
tp741
a(I215
I25
I28
tp742
a(I244
I109
I67
tp743
a(I252
I141
I89
tp744
a(I253
I174
I97
tp745
a(I254
I224
I139
tp746
a(I255
I255
I191
tp747
a(I230
I245
I152
tp748
a(I171
I221
I164
tp749
a(I153
I213
I148
tp750
a(I102
I194
I165
tp751
a(I43
I131
I186
tp752
a(I50
I136
I189
tp753
a(I94
I79
I162
tp754
asS'rdylgn'
p755
(lp756
(I165
I0
I38
tp757
a(I215
I48
I39
tp758
a(I215
I25
I28
tp759
a(I244
I109
I67
tp760
a(I252
I141
I89
tp761
a(I253
I174
I97
tp762
a(I254
I224
I139
tp763
a(I255
I255
I191
tp764
a(I217
I239
I139
tp765
a(I166
I217
I106
tp766
a(I145
I207
I96
tp767
a(I102
I189
I99
tp768
a(I26
I150
I65
tp769
a(I26
I152
I80
tp770
a(I0
I104
I55
tp771
asS'prgn'
p772
(lp773
(I64
I0
I75
tp774
a(I118
I42
I131
tp775
a(I123
I50
I148
tp776
a(I153
I112
I171
tp777
a(I175
I141
I195
tp778
a(I194
I165
I207
tp779
a(I231
I212
I232
tp780
a(I247
I247
I247
tp781
a(I217
I240
I211
tp782
a(I166
I219
I160
tp783
a(I127
I191
I123
tp784
a(I90
I174
I97
tp785
a(I0
I136
I55
tp786
a(I27
I120
I55
tp787
a(I0
I68
I27
tp788
asS'rdbu'
p789
(lp790
(I103
I0
I31
tp791
a(I178
I24
I43
tp792
a(I202
I0
I32
tp793
a(I214
I96
I77
tp794
a(I239
I138
I98
tp795
a(I244
I165
I130
tp796
a(I253
I219
I199
tp797
a(I247
I247
I247
tp798
a(I209
I229
I240
tp799
a(I146
I197
I222
tp800
a(I103
I169
I207
tp801
a(I67
I147
I195
tp802
a(I5
I113
I176
tp803
a(I33
I102
I172
tp804
a(I5
I48
I97
tp805
asS'rdgy'
p806
(lp807
(I103
I0
I31
tp808
a(I178
I24
I43
tp809
a(I202
I0
I32
tp810
a(I214
I96
I77
tp811
a(I239
I138
I98
tp812
a(I244
I165
I130
tp813
a(I253
I219
I199
tp814
a(I255
I255
I255
tp815
a(I224
I224
I224
tp816
a(I186
I186
I186
tp817
a(I153
I153
I153
tp818
a(I135
I135
I135
tp819
a(I64
I64
I64
tp820
a(I77
I77
I77
tp821
a(I26
I26
I26
tp822
asS'rdylbu'
p823
(lp824
(I165
I0
I38
tp825
a(I215
I48
I39
tp826
a(I215
I25
I28
tp827
a(I244
I109
I67
tp828
a(I252
I141
I89
tp829
a(I253
I174
I97
tp830
a(I254
I224
I144
tp831
a(I255
I255
I191
tp832
a(I224
I243
I248
tp833
a(I171
I217
I233
tp834
a(I145
I191
I219
tp835
a(I116
I173
I209
tp836
a(I44
I123
I182
tp837
a(I69
I117
I180
tp838
a(I49
I54
I149
tp839
asS'piyg'
p840
(lp841
(I142
I1
I82
tp842
a(I197
I27
I125
tp843
a(I208
I28
I139
tp844
a(I222
I119
I174
tp845
a(I233
I163
I201
tp846
a(I241
I182
I218
tp847
a(I253
I224
I239
tp848
a(I247
I247
I247
tp849
a(I230
I245
I208
tp850
a(I184
I225
I134
tp851
a(I161
I215
I106
tp852
a(I127
I188
I65
tp853
a(I77
I172
I38
tp854
a(I77
I146
I33
tp855
a(I39
I100
I25
tp856
asS'puor'
p857
(lp858
(I127
I59
I8
tp859
a(I179
I88
I6
tp860
a(I230
I97
I1
tp861
a(I224
I130
I20
tp862
a(I241
I163
I64
tp863
a(I253
I184
I99
tp864
a(I254
I224
I182
tp865
a(I247
I247
I247
tp866
a(I216
I218
I235
tp867
a(I178
I171
I210
tp868
a(I153
I142
I195
tp869
a(I128
I115
I172
tp870
a(I94
I60
I153
tp871
a(I84
I39
I136
tp872
a(I45
I0
I75
tp873
asS'brbg'
p874
(lp875
(I84
I48
I5
tp876
a(I140
I81
I10
tp877
a(I166
I97
I26
tp878
a(I191
I129
I45
tp879
a(I216
I179
I101
tp880
a(I223
I194
I125
tp881
a(I246
I232
I195
tp882
a(I245
I245
I245
tp883
a(I199
I234
I229
tp884
a(I128
I205
I193
tp885
a(I90
I180
I172
tp886
a(I53
I151
I143
tp887
a(I1
I133
I113
tp888
a(I1
I102
I94
tp889
a(I0
I60
I48
tp890
assg87
(dp891
S'spectral'
p892
(lp893
(I252
I141
I89
tp894
a(I255
I255
I191
tp895
a(I153
I213
I148
tp896
asS'rdylgn'
p897
(lp898
(I252
I141
I89
tp899
a(I255
I255
I191
tp900
a(I145
I207
I96
tp901
asS'prgn'
p902
(lp903
(I175
I141
I195
tp904
a(I247
I247
I247
tp905
a(I127
I191
I123
tp906
asS'rdbu'
p907
(lp908
(I239
I138
I98
tp909
a(I247
I247
I247
tp910
a(I103
I169
I207
tp911
asS'rdgy'
p912
(lp913
(I239
I138
I98
tp914
a(I255
I255
I255
tp915
a(I153
I153
I153
tp916
asS'rdylbu'
p917
(lp918
(I252
I141
I89
tp919
a(I255
I255
I191
tp920
a(I145
I191
I219
tp921
asS'piyg'
p922
(lp923
(I233
I163
I201
tp924
a(I247
I247
I247
tp925
a(I161
I215
I106
tp926
asS'puor'
p927
(lp928
(I241
I163
I64
tp929
a(I247
I247
I247
tp930
a(I153
I142
I195
tp931
asS'brbg'
p932
(lp933
(I216
I179
I101
tp934
a(I245
I245
I245
tp935
a(I90
I180
I172
tp936
assg129
(dp937
S'spectral'
p938
(lp939
(I215
I25
I28
tp940
a(I253
I174
I97
tp941
a(I255
I255
I191
tp942
a(I171
I221
I164
tp943
a(I43
I131
I186
tp944
asS'rdylgn'
p945
(lp946
(I215
I25
I28
tp947
a(I253
I174
I97
tp948
a(I255
I255
I191
tp949
a(I166
I217
I106
tp950
a(I26
I150
I65
tp951
asS'prgn'
p952
(lp953
(I123
I50
I148
tp954
a(I194
I165
I207
tp955
a(I247
I247
I247
tp956
a(I166
I219
I160
tp957
a(I0
I136
I55
tp958
asS'rdbu'
p959
(lp960
(I202
I0
I32
tp961
a(I244
I165
I130
tp962
a(I247
I247
I247
tp963
a(I146
I197
I222
tp964
a(I5
I113
I176
tp965
asS'rdgy'
p966
(lp967
(I202
I0
I32
tp968
a(I244
I165
I130
tp969
a(I255
I255
I255
tp970
a(I186
I186
I186
tp971
a(I64
I64
I64
tp972
asS'rdylbu'
p973
(lp974
(I215
I25
I28
tp975
a(I253
I174
I97
tp976
a(I255
I255
I191
tp977
a(I171
I217
I233
tp978
a(I44
I123
I182
tp979
asS'piyg'
p980
(lp981
(I208
I28
I139
tp982
a(I241
I182
I218
tp983
a(I247
I247
I247
tp984
a(I184
I225
I134
tp985
a(I77
I172
I38
tp986
asS'puor'
p987
(lp988
(I230
I97
I1
tp989
a(I253
I184
I99
tp990
a(I247
I247
I247
tp991
a(I178
I171
I210
tp992
a(I94
I60
I153
tp993
asS'brbg'
p994
(lp995
(I166
I97
I26
tp996
a(I223
I194
I125
tp997
a(I245
I245
I245
tp998
a(I128
I205
I193
tp999
a(I1
I133
I113
tp1000
assg187
(dp1001
S'spectral'
p1002
(lp1003
(I215
I25
I28
tp1004
a(I253
I174
I97
tp1005
a(I171
I221
I164
tp1006
a(I43
I131
I186
tp1007
asS'rdylgn'
p1008
(lp1009
(I215
I25
I28
tp1010
a(I253
I174
I97
tp1011
a(I166
I217
I106
tp1012
a(I26
I150
I65
tp1013
asS'prgn'
p1014
(lp1015
(I123
I50
I148
tp1016
a(I194
I165
I207
tp1017
a(I166
I219
I160
tp1018
a(I0
I136
I55
tp1019
asS'rdbu'
p1020
(lp1021
(I202
I0
I32
tp1022
a(I244
I165
I130
tp1023
a(I146
I197
I222
tp1024
a(I5
I113
I176
tp1025
asS'rdgy'
p1026
(lp1027
(I202
I0
I32
tp1028
a(I244
I165
I130
tp1029
a(I186
I186
I186
tp1030
a(I64
I64
I64
tp1031
asS'rdylbu'
p1032
(lp1033
(I215
I25
I28
tp1034
a(I253
I174
I97
tp1035
a(I171
I217
I233
tp1036
a(I44
I123
I182
tp1037
asS'piyg'
p1038
(lp1039
(I208
I28
I139
tp1040
a(I241
I182
I218
tp1041
a(I184
I225
I134
tp1042
a(I77
I172
I38
tp1043
asS'puor'
p1044
(lp1045
(I230
I97
I1
tp1046
a(I253
I184
I99
tp1047
a(I178
I171
I210
tp1048
a(I94
I60
I153
tp1049
asS'brbg'
p1050
(lp1051
(I166
I97
I26
tp1052
a(I223
I194
I125
tp1053
a(I128
I205
I193
tp1054
a(I1
I133
I113
tp1055
assg237
(dp1056
S'spectral'
p1057
(lp1058
(I213
I62
I79
tp1059
a(I252
I141
I89
tp1060
a(I254
I224
I139
tp1061
a(I255
I255
I191
tp1062
a(I230
I245
I152
tp1063
a(I153
I213
I148
tp1064
a(I50
I136
I189
tp1065
asS'rdylgn'
p1066
(lp1067
(I215
I48
I39
tp1068
a(I252
I141
I89
tp1069
a(I254
I224
I139
tp1070
a(I255
I255
I191
tp1071
a(I217
I239
I139
tp1072
a(I145
I207
I96
tp1073
a(I26
I152
I80
tp1074
asS'prgn'
p1075
(lp1076
(I118
I42
I131
tp1077
a(I175
I141
I195
tp1078
a(I231
I212
I232
tp1079
a(I247
I247
I247
tp1080
a(I217
I240
I211
tp1081
a(I127
I191
I123
tp1082
a(I27
I120
I55
tp1083
asS'rdbu'
p1084
(lp1085
(I178
I24
I43
tp1086
a(I239
I138
I98
tp1087
a(I253
I219
I199
tp1088
a(I247
I247
I247
tp1089
a(I209
I229
I240
tp1090
a(I103
I169
I207
tp1091
a(I33
I102
I172
tp1092
asS'rdgy'
p1093
(lp1094
(I178
I24
I43
tp1095
a(I239
I138
I98
tp1096
a(I253
I219
I199
tp1097
a(I255
I255
I255
tp1098
a(I224
I224
I224
tp1099
a(I153
I153
I153
tp1100
a(I77
I77
I77
tp1101
asS'rdylbu'
p1102
(lp1103
(I215
I48
I39
tp1104
a(I252
I141
I89
tp1105
a(I254
I224
I144
tp1106
a(I255
I255
I191
tp1107
a(I224
I243
I248
tp1108
a(I145
I191
I219
tp1109
a(I69
I117
I180
tp1110
asS'piyg'
p1111
(lp1112
(I197
I27
I125
tp1113
a(I233
I163
I201
tp1114
a(I253
I224
I239
tp1115
a(I247
I247
I247
tp1116
a(I230
I245
I208
tp1117
a(I161
I215
I106
tp1118
a(I77
I146
I33
tp1119
asS'puor'
p1120
(lp1121
(I179
I88
I6
tp1122
a(I241
I163
I64
tp1123
a(I254
I224
I182
tp1124
a(I247
I247
I247
tp1125
a(I216
I218
I235
tp1126
a(I153
I142
I195
tp1127
a(I84
I39
I136
tp1128
asS'brbg'
p1129
(lp1130
(I140
I81
I10
tp1131
a(I216
I179
I101
tp1132
a(I246
I232
I195
tp1133
a(I245
I245
I245
tp1134
a(I199
I234
I229
tp1135
a(I90
I180
I172
tp1136
a(I1
I102
I94
tp1137
assg311
(dp1138
S'spectral'
p1139
(lp1140
(I213
I62
I79
tp1141
a(I252
I141
I89
tp1142
a(I254
I224
I139
tp1143
a(I230
I245
I152
tp1144
a(I153
I213
I148
tp1145
a(I50
I136
I189
tp1146
asS'rdylgn'
p1147
(lp1148
(I215
I48
I39
tp1149
a(I252
I141
I89
tp1150
a(I254
I224
I139
tp1151
a(I217
I239
I139
tp1152
a(I145
I207
I96
tp1153
a(I26
I152
I80
tp1154
asS'prgn'
p1155
(lp1156
(I118
I42
I131
tp1157
a(I175
I141
I195
tp1158
a(I231
I212
I232
tp1159
a(I217
I240
I211
tp1160
a(I127
I191
I123
tp1161
a(I27
I120
I55
tp1162
asS'rdbu'
p1163
(lp1164
(I178
I24
I43
tp1165
a(I239
I138
I98
tp1166
a(I253
I219
I199
tp1167
a(I209
I229
I240
tp1168
a(I103
I169
I207
tp1169
a(I33
I102
I172
tp1170
asS'rdgy'
p1171
(lp1172
(I178
I24
I43
tp1173
a(I239
I138
I98
tp1174
a(I253
I219
I199
tp1175
a(I224
I224
I224
tp1176
a(I153
I153
I153
tp1177
a(I77
I77
I77
tp1178
asS'rdylbu'
p1179
(lp1180
(I215
I48
I39
tp1181
a(I252
I141
I89
tp1182
a(I254
I224
I144
tp1183
a(I224
I243
I248
tp1184
a(I145
I191
I219
tp1185
a(I69
I117
I180
tp1186
asS'piyg'
p1187
(lp1188
(I197
I27
I125
tp1189
a(I233
I163
I201
tp1190
a(I253
I224
I239
tp1191
a(I230
I245
I208
tp1192
a(I161
I215
I106
tp1193
a(I77
I146
I33
tp1194
asS'puor'
p1195
(lp1196
(I179
I88
I6
tp1197
a(I241
I163
I64
tp1198
a(I254
I224
I182
tp1199
a(I216
I218
I235
tp1200
a(I153
I142
I195
tp1201
a(I84
I39
I136
tp1202
asS'brbg'
p1203
(lp1204
(I140
I81
I10
tp1205
a(I216
I179
I101
tp1206
a(I246
I232
I195
tp1207
a(I199
I234
I229
tp1208
a(I90
I180
I172
tp1209
a(I1
I102
I94
tp1210
assg377
(dp1211
S'spectral'
p1212
(lp1213
(I213
I62
I79
tp1214
a(I244
I109
I67
tp1215
a(I253
I174
I97
tp1216
a(I254
I224
I139
tp1217
a(I255
I255
I191
tp1218
a(I230
I245
I152
tp1219
a(I171
I221
I164
tp1220
a(I102
I194
I165
tp1221
a(I50
I136
I189
tp1222
asS'rdylgn'
p1223
(lp1224
(I215
I48
I39
tp1225
a(I244
I109
I67
tp1226
a(I253
I174
I97
tp1227
a(I254
I224
I139
tp1228
a(I255
I255
I191
tp1229
a(I217
I239
I139
tp1230
a(I166
I217
I106
tp1231
a(I102
I189
I99
tp1232
a(I26
I152
I80
tp1233
asS'prgn'
p1234
(lp1235
(I118
I42
I131
tp1236
a(I153
I112
I171
tp1237
a(I194
I165
I207
tp1238
a(I231
I212
I232
tp1239
a(I247
I247
I247
tp1240
a(I217
I240
I211
tp1241
a(I166
I219
I160
tp1242
a(I90
I174
I97
tp1243
a(I27
I120
I55
tp1244
asS'rdbu'
p1245
(lp1246
(I178
I24
I43
tp1247
a(I214
I96
I77
tp1248
a(I244
I165
I130
tp1249
a(I253
I219
I199
tp1250
a(I247
I247
I247
tp1251
a(I209
I229
I240
tp1252
a(I146
I197
I222
tp1253
a(I67
I147
I195
tp1254
a(I33
I102
I172
tp1255
asS'rdgy'
p1256
(lp1257
(I178
I24
I43
tp1258
a(I214
I96
I77
tp1259
a(I244
I165
I130
tp1260
a(I253
I219
I199
tp1261
a(I255
I255
I255
tp1262
a(I224
I224
I224
tp1263
a(I186
I186
I186
tp1264
a(I135
I135
I135
tp1265
a(I77
I77
I77
tp1266
asS'rdylbu'
p1267
(lp1268
(I215
I48
I39
tp1269
a(I244
I109
I67
tp1270
a(I253
I174
I97
tp1271
a(I254
I224
I144
tp1272
a(I255
I255
I191
tp1273
a(I224
I243
I248
tp1274
a(I171
I217
I233
tp1275
a(I116
I173
I209
tp1276
a(I69
I117
I180
tp1277
asS'piyg'
p1278
(lp1279
(I197
I27
I125
tp1280
a(I222
I119
I174
tp1281
a(I241
I182
I218
tp1282
a(I253
I224
I239
tp1283
a(I247
I247
I247
tp1284
a(I230
I245
I208
tp1285
a(I184
I225
I134
tp1286
a(I127
I188
I65
tp1287
a(I77
I146
I33
tp1288
asS'puor'
p1289
(lp1290
(I179
I88
I6
tp1291
a(I224
I130
I20
tp1292
a(I253
I184
I99
tp1293
a(I254
I224
I182
tp1294
a(I247
I247
I247
tp1295
a(I216
I218
I235
tp1296
a(I178
I171
I210
tp1297
a(I128
I115
I172
tp1298
a(I84
I39
I136
tp1299
asS'brbg'
p1300
(lp1301
(I140
I81
I10
tp1302
a(I191
I129
I45
tp1303
a(I223
I194
I125
tp1304
a(I246
I232
I195
tp1305
a(I245
I245
I245
tp1306
a(I199
I234
I229
tp1307
a(I128
I205
I193
tp1308
a(I53
I151
I143
tp1309
a(I1
I102
I94
tp1310
assg423
(dp1311
S'spectral'
p1312
(lp1313
(I213
I62
I79
tp1314
a(I244
I109
I67
tp1315
a(I253
I174
I97
tp1316
a(I254
I224
I139
tp1317
a(I230
I245
I152
tp1318
a(I171
I221
I164
tp1319
a(I102
I194
I165
tp1320
a(I50
I136
I189
tp1321
asS'rdylgn'
p1322
(lp1323
(I215
I48
I39
tp1324
a(I244
I109
I67
tp1325
a(I253
I174
I97
tp1326
a(I254
I224
I139
tp1327
a(I217
I239
I139
tp1328
a(I166
I217
I106
tp1329
a(I102
I189
I99
tp1330
a(I26
I152
I80
tp1331
asS'prgn'
p1332
(lp1333
(I118
I42
I131
tp1334
a(I153
I112
I171
tp1335
a(I194
I165
I207
tp1336
a(I231
I212
I232
tp1337
a(I217
I240
I211
tp1338
a(I166
I219
I160
tp1339
a(I90
I174
I97
tp1340
a(I27
I120
I55
tp1341
asS'rdbu'
p1342
(lp1343
(I178
I24
I43
tp1344
a(I214
I96
I77
tp1345
a(I244
I165
I130
tp1346
a(I253
I219
I199
tp1347
a(I209
I229
I240
tp1348
a(I146
I197
I222
tp1349
a(I67
I147
I195
tp1350
a(I33
I102
I172
tp1351
asS'rdgy'
p1352
(lp1353
(I178
I24
I43
tp1354
a(I214
I96
I77
tp1355
a(I244
I165
I130
tp1356
a(I253
I219
I199
tp1357
a(I224
I224
I224
tp1358
a(I186
I186
I186
tp1359
a(I135
I135
I135
tp1360
a(I77
I77
I77
tp1361
asS'rdylbu'
p1362
(lp1363
(I215
I48
I39
tp1364
a(I244
I109
I67
tp1365
a(I253
I174
I97
tp1366
a(I254
I224
I144
tp1367
a(I224
I243
I248
tp1368
a(I171
I217
I233
tp1369
a(I116
I173
I209
tp1370
a(I69
I117
I180
tp1371
asS'piyg'
p1372
(lp1373
(I197
I27
I125
tp1374
a(I222
I119
I174
tp1375
a(I241
I182
I218
tp1376
a(I253
I224
I239
tp1377
a(I230
I245
I208
tp1378
a(I184
I225
I134
tp1379
a(I127
I188
I65
tp1380
a(I77
I146
I33
tp1381
asS'puor'
p1382
(lp1383
(I179
I88
I6
tp1384
a(I224
I130
I20
tp1385
a(I253
I184
I99
tp1386
a(I254
I224
I182
tp1387
a(I216
I218
I235
tp1388
a(I178
I171
I210
tp1389
a(I128
I115
I172
tp1390
a(I84
I39
I136
tp1391
asS'brbg'
p1392
(lp1393
(I140
I81
I10
tp1394
a(I191
I129
I45
tp1395
a(I223
I194
I125
tp1396
a(I246
I232
I195
tp1397
a(I199
I234
I229
tp1398
a(I128
I205
I193
tp1399
a(I53
I151
I143
tp1400
a(I1
I102
I94
tp1401
asssS'seq'
p1402
(dp1403
S'13'
p1404
(dp1405
S'reds'
p1406
(lp1407
(I255
I245
I240
tp1408
a(I254
I229
I217
tp1409
a(I254
I224
I210
tp1410
a(I252
I187
I161
tp1411
a(I252
I174
I145
tp1412
a(I252
I146
I114
tp1413
a(I251
I106
I74
tp1414
a(I239
I59
I44
tp1415
a(I222
I45
I38
tp1416
a(I203
I24
I29
tp1417
a(I165
I15
I21
tp1418
a(I153
I0
I13
tp1419
a(I103
I0
I13
tp1420
asS'ylorrd'
p1421
(lp1422
(I255
I255
I204
tp1423
a(I255
I255
I178
tp1424
a(I255
I237
I160
tp1425
a(I254
I217
I118
tp1426
a(I254
I204
I92
tp1427
a(I254
I178
I76
tp1428
a(I253
I141
I60
tp1429
a(I252
I78
I42
tp1430
a(I240
I59
I32
tp1431
a(I227
I26
I28
tp1432
a(I189
I0
I38
tp1433
a(I177
I0
I38
tp1434
a(I128
I0
I38
tp1435
asS'rdpu'
p1436
(lp1437
(I255
I247
I243
tp1438
a(I254
I235
I226
tp1439
a(I253
I224
I221
tp1440
a(I252
I197
I192
tp1441
a(I251
I180
I185
tp1442
a(I250
I159
I181
tp1443
a(I247
I104
I161
tp1444
a(I221
I52
I151
tp1445
a(I197
I27
I138
tp1446
a(I174
I1
I126
tp1447
a(I122
I1
I119
tp1448
a(I122
I1
I119
tp1449
a(I73
I0
I106
tp1450
asS'ylorbr'
p1451
(lp1452
(I255
I255
I229
tp1453
a(I255
I255
I212
tp1454
a(I255
I247
I188
tp1455
a(I254
I227
I145
tp1456
a(I254
I217
I142
tp1457
a(I254
I196
I79
tp1458
a(I254
I153
I41
tp1459
a(I236
I112
I20
tp1460
a(I217
I95
I14
tp1461
a(I204
I76
I2
tp1462
a(I153
I52
I4
tp1463
a(I140
I45
I4
tp1464
a(I102
I37
I6
tp1465
asS'greens'
p1466
(lp1467
(I247
I252
I245
tp1468
a(I237
I248
I233
tp1469
a(I229
I245
I224
tp1470
a(I199
I233
I192
tp1471
a(I186
I228
I179
tp1472
a(I161
I217
I155
tp1473
a(I116
I196
I118
tp1474
a(I65
I171
I93
tp1475
a(I49
I163
I84
tp1476
a(I35
I139
I69
tp1477
a(I0
I109
I44
tp1478
a(I0
I90
I50
tp1479
a(I0
I68
I27
tp1480
asS'gnbu'
p1481
(lp1482
(I247
I252
I240
tp1483
a(I240
I249
I232
tp1484
a(I224
I243
I219
tp1485
a(I204
I235
I197
tp1486
a(I186
I228
I188
tp1487
a(I168
I221
I181
tp1488
a(I123
I204
I196
tp1489
a(I78
I179
I211
tp1490
a(I67
I162
I202
tp1491
a(I43
I140
I190
tp1492
a(I8
I104
I172
tp1493
a(I8
I88
I158
tp1494
a(I8
I64
I129
tp1495
asS'ylgnbu'
p1496
(lp1497
(I255
I255
I217
tp1498
a(I255
I255
I204
tp1499
a(I237
I248
I177
tp1500
a(I199
I233
I180
tp1501
a(I161
I218
I180
tp1502
a(I127
I205
I187
tp1503
a(I65
I182
I196
tp1504
a(I29
I145
I192
tp1505
a(I44
I127
I184
tp1506
a(I34
I94
I168
tp1507
a(I37
I52
I148
tp1508
a(I12
I44
I132
tp1509
a(I8
I29
I88
tp1510
asS'bupu'
p1511
(lp1512
(I247
I252
I253
tp1513
a(I237
I248
I251
tp1514
a(I224
I236
I244
tp1515
a(I191
I211
I230
tp1516
a(I179
I205
I227
tp1517
a(I158
I188
I218
tp1518
a(I140
I150
I198
tp1519
a(I140
I107
I177
tp1520
a(I136
I86
I167
tp1521
a(I136
I65
I157
tp1522
a(I129
I15
I124
tp1523
a(I110
I1
I107
tp1524
a(I77
I0
I75
tp1525
asS'greys'
p1526
(lp1527
(I255
I255
I255
tp1528
a(I247
I247
I247
tp1529
a(I240
I240
I240
tp1530
a(I217
I217
I217
tp1531
a(I204
I204
I204
tp1532
a(I189
I189
I189
tp1533
a(I150
I150
I150
tp1534
a(I115
I115
I115
tp1535
a(I99
I99
I99
tp1536
a(I82
I82
I82
tp1537
a(I37
I37
I37
tp1538
a(I37
I37
I37
tp1539
a(I0
I0
I0
tp1540
asS'oranges'
p1541
(lp1542
(I255
I245
I235
tp1543
a(I254
I237
I222
tp1544
a(I254
I230
I206
tp1545
a(I253
I208
I162
tp1546
a(I253
I190
I133
tp1547
a(I253
I174
I107
tp1548
a(I253
I141
I60
tp1549
a(I241
I105
I19
tp1550
a(I230
I85
I13
tp1551
a(I217
I72
I1
tp1552
a(I166
I54
I3
tp1553
a(I140
I45
I4
tp1554
a(I127
I39
I4
tp1555
asS'orrd'
p1556
(lp1557
(I255
I247
I236
tp1558
a(I254
I240
I217
tp1559
a(I254
I232
I200
tp1560
a(I253
I212
I158
tp1561
a(I253
I204
I138
tp1562
a(I253
I187
I132
tp1563
a(I252
I141
I89
tp1564
a(I239
I101
I72
tp1565
a(I227
I74
I51
tp1566
a(I215
I48
I31
tp1567
a(I179
I0
I0
tp1568
a(I153
I0
I0
tp1569
a(I127
I0
I0
tp1570
asS'bugn'
p1571
(lp1572
(I247
I252
I253
tp1573
a(I237
I248
I251
tp1574
a(I229
I245
I249
tp1575
a(I204
I236
I230
tp1576
a(I178
I226
I226
tp1577
a(I153
I216
I201
tp1578
a(I102
I194
I164
tp1579
a(I65
I174
I118
tp1580
a(I44
I162
I95
tp1581
a(I35
I139
I69
tp1582
a(I0
I109
I44
tp1583
a(I0
I88
I36
tp1584
a(I0
I68
I27
tp1585
asS'pubu'
p1586
(lp1587
(I255
I247
I251
tp1588
a(I241
I238
I246
tp1589
a(I236
I231
I242
tp1590
a(I208
I209
I230
tp1591
a(I189
I201
I225
tp1592
a(I166
I189
I219
tp1593
a(I116
I169
I207
tp1594
a(I54
I144
I192
tp1595
a(I43
I140
I190
tp1596
a(I5
I112
I176
tp1597
a(I4
I90
I141
tp1598
a(I3
I78
I123
tp1599
a(I2
I56
I88
tp1600
asS'purd'
p1601
(lp1602
(I247
I244
I249
tp1603
a(I241
I238
I246
tp1604
a(I231
I225
I239
tp1605
a(I212
I185
I218
tp1606
a(I215
I181
I216
tp1607
a(I201
I148
I199
tp1608
a(I223
I101
I176
tp1609
a(I231
I41
I138
tp1610
a(I221
I28
I119
tp1611
a(I206
I18
I86
tp1612
a(I152
I0
I67
tp1613
a(I145
I0
I63
tp1614
a(I103
I0
I31
tp1615
asS'blues'
p1616
(lp1617
(I247
I251
I255
tp1618
a(I239
I243
I255
tp1619
a(I222
I235
I247
tp1620
a(I198
I219
I239
tp1621
a(I189
I215
I231
tp1622
a(I158
I202
I225
tp1623
a(I107
I174
I214
tp1624
a(I66
I146
I198
tp1625
a(I49
I130
I189
tp1626
a(I33
I113
I181
tp1627
a(I8
I81
I156
tp1628
a(I8
I69
I148
tp1629
a(I8
I48
I107
tp1630
asS'pubugn'
p1631
(lp1632
(I255
I247
I251
tp1633
a(I246
I239
I247
tp1634
a(I236
I226
I240
tp1635
a(I208
I209
I230
tp1636
a(I189
I201
I225
tp1637
a(I166
I189
I219
tp1638
a(I103
I169
I207
tp1639
a(I54
I144
I192
tp1640
a(I28
I144
I153
tp1641
a(I2
I129
I138
tp1642
a(I1
I108
I89
tp1643
a(I1
I100
I80
tp1644
a(I1
I70
I54
tp1645
asS'ylgn'
p1646
(lp1647
(I255
I255
I229
tp1648
a(I255
I255
I204
tp1649
a(I247
I252
I185
tp1650
a(I217
I240
I163
tp1651
a(I194
I230
I153
tp1652
a(I173
I221
I142
tp1653
a(I120
I198
I121
tp1654
a(I65
I171
I93
tp1655
a(I49
I163
I84
tp1656
a(I35
I132
I67
tp1657
a(I0
I104
I55
tp1658
a(I0
I90
I50
tp1659
a(I0
I69
I41
tp1660
asS'purples'
p1661
(lp1662
(I252
I251
I253
tp1663
a(I242
I240
I247
tp1664
a(I239
I237
I245
tp1665
a(I218
I218
I235
tp1666
a(I203
I201
I226
tp1667
a(I188
I189
I220
tp1668
a(I158
I154
I200
tp1669
a(I128
I125
I186
tp1670
a(I117
I107
I177
tp1671
a(I106
I81
I163
tp1672
a(I84
I39
I143
tp1673
a(I74
I20
I134
tp1674
a(I63
I0
I125
tp1675
assg87
(dp1676
S'reds'
p1677
(lp1678
(I254
I224
I210
tp1679
a(I252
I146
I114
tp1680
a(I222
I45
I38
tp1681
asS'ylorrd'
p1682
(lp1683
(I255
I237
I160
tp1684
a(I254
I178
I76
tp1685
a(I240
I59
I32
tp1686
asS'rdpu'
p1687
(lp1688
(I253
I224
I221
tp1689
a(I250
I159
I181
tp1690
a(I197
I27
I138
tp1691
asS'ylorbr'
p1692
(lp1693
(I255
I247
I188
tp1694
a(I254
I196
I79
tp1695
a(I217
I95
I14
tp1696
asS'greens'
p1697
(lp1698
(I229
I245
I224
tp1699
a(I161
I217
I155
tp1700
a(I49
I163
I84
tp1701
asS'gnbu'
p1702
(lp1703
(I224
I243
I219
tp1704
a(I168
I221
I181
tp1705
a(I67
I162
I202
tp1706
asS'ylgnbu'
p1707
(lp1708
(I237
I248
I177
tp1709
a(I127
I205
I187
tp1710
a(I44
I127
I184
tp1711
asS'bupu'
p1712
(lp1713
(I224
I236
I244
tp1714
a(I158
I188
I218
tp1715
a(I136
I86
I167
tp1716
asS'greys'
p1717
(lp1718
(I240
I240
I240
tp1719
a(I189
I189
I189
tp1720
a(I99
I99
I99
tp1721
asS'oranges'
p1722
(lp1723
(I254
I230
I206
tp1724
a(I253
I174
I107
tp1725
a(I230
I85
I13
tp1726
asS'orrd'
p1727
(lp1728
(I254
I232
I200
tp1729
a(I253
I187
I132
tp1730
a(I227
I74
I51
tp1731
asS'bugn'
p1732
(lp1733
(I229
I245
I249
tp1734
a(I153
I216
I201
tp1735
a(I44
I162
I95
tp1736
asS'pubu'
p1737
(lp1738
(I236
I231
I242
tp1739
a(I166
I189
I219
tp1740
a(I43
I140
I190
tp1741
asS'purd'
p1742
(lp1743
(I231
I225
I239
tp1744
a(I201
I148
I199
tp1745
a(I221
I28
I119
tp1746
asS'blues'
p1747
(lp1748
(I222
I235
I247
tp1749
a(I158
I202
I225
tp1750
a(I49
I130
I189
tp1751
asS'pubugn'
p1752
(lp1753
(I236
I226
I240
tp1754
a(I166
I189
I219
tp1755
a(I28
I144
I153
tp1756
asS'ylgn'
p1757
(lp1758
(I247
I252
I185
tp1759
a(I173
I221
I142
tp1760
a(I49
I163
I84
tp1761
asS'purples'
p1762
(lp1763
(I239
I237
I245
tp1764
a(I188
I189
I220
tp1765
a(I117
I107
I177
tp1766
assg129
(dp1767
S'reds'
p1768
(lp1769
(I254
I229
I217
tp1770
a(I252
I174
I145
tp1771
a(I251
I106
I74
tp1772
a(I222
I45
I38
tp1773
a(I165
I15
I21
tp1774
asS'ylorrd'
p1775
(lp1776
(I255
I255
I178
tp1777
a(I254
I204
I92
tp1778
a(I253
I141
I60
tp1779
a(I240
I59
I32
tp1780
a(I189
I0
I38
tp1781
asS'rdpu'
p1782
(lp1783
(I254
I235
I226
tp1784
a(I251
I180
I185
tp1785
a(I247
I104
I161
tp1786
a(I197
I27
I138
tp1787
a(I122
I1
I119
tp1788
asS'ylorbr'
p1789
(lp1790
(I255
I255
I212
tp1791
a(I254
I217
I142
tp1792
a(I254
I153
I41
tp1793
a(I217
I95
I14
tp1794
a(I153
I52
I4
tp1795
asS'greens'
p1796
(lp1797
(I237
I248
I233
tp1798
a(I186
I228
I179
tp1799
a(I116
I196
I118
tp1800
a(I49
I163
I84
tp1801
a(I0
I109
I44
tp1802
asS'gnbu'
p1803
(lp1804
(I240
I249
I232
tp1805
a(I186
I228
I188
tp1806
a(I123
I204
I196
tp1807
a(I67
I162
I202
tp1808
a(I8
I104
I172
tp1809
asS'ylgnbu'
p1810
(lp1811
(I255
I255
I204
tp1812
a(I161
I218
I180
tp1813
a(I65
I182
I196
tp1814
a(I44
I127
I184
tp1815
a(I37
I52
I148
tp1816
asS'bupu'
p1817
(lp1818
(I237
I248
I251
tp1819
a(I179
I205
I227
tp1820
a(I140
I150
I198
tp1821
a(I136
I86
I167
tp1822
a(I129
I15
I124
tp1823
asS'greys'
p1824
(lp1825
(I247
I247
I247
tp1826
a(I204
I204
I204
tp1827
a(I150
I150
I150
tp1828
a(I99
I99
I99
tp1829
a(I37
I37
I37
tp1830
asS'oranges'
p1831
(lp1832
(I254
I237
I222
tp1833
a(I253
I190
I133
tp1834
a(I253
I141
I60
tp1835
a(I230
I85
I13
tp1836
a(I166
I54
I3
tp1837
asS'orrd'
p1838
(lp1839
(I254
I240
I217
tp1840
a(I253
I204
I138
tp1841
a(I252
I141
I89
tp1842
a(I227
I74
I51
tp1843
a(I179
I0
I0
tp1844
asS'bugn'
p1845
(lp1846
(I237
I248
I251
tp1847
a(I178
I226
I226
tp1848
a(I102
I194
I164
tp1849
a(I44
I162
I95
tp1850
a(I0
I109
I44
tp1851
asS'pubu'
p1852
(lp1853
(I241
I238
I246
tp1854
a(I189
I201
I225
tp1855
a(I116
I169
I207
tp1856
a(I43
I140
I190
tp1857
a(I4
I90
I141
tp1858
asS'purd'
p1859
(lp1860
(I241
I238
I246
tp1861
a(I215
I181
I216
tp1862
a(I223
I101
I176
tp1863
a(I221
I28
I119
tp1864
a(I152
I0
I67
tp1865
asS'blues'
p1866
(lp1867
(I239
I243
I255
tp1868
a(I189
I215
I231
tp1869
a(I107
I174
I214
tp1870
a(I49
I130
I189
tp1871
a(I8
I81
I156
tp1872
asS'pubugn'
p1873
(lp1874
(I246
I239
I247
tp1875
a(I189
I201
I225
tp1876
a(I103
I169
I207
tp1877
a(I28
I144
I153
tp1878
a(I1
I108
I89
tp1879
asS'ylgn'
p1880
(lp1881
(I255
I255
I204
tp1882
a(I194
I230
I153
tp1883
a(I120
I198
I121
tp1884
a(I49
I163
I84
tp1885
a(I0
I104
I55
tp1886
asS'purples'
p1887
(lp1888
(I242
I240
I247
tp1889
a(I203
I201
I226
tp1890
a(I158
I154
I200
tp1891
a(I117
I107
I177
tp1892
a(I84
I39
I143
tp1893
assg187
(dp1894
S'reds'
p1895
(lp1896
(I254
I229
I217
tp1897
a(I252
I174
I145
tp1898
a(I251
I106
I74
tp1899
a(I203
I24
I29
tp1900
asS'ylorrd'
p1901
(lp1902
(I255
I255
I178
tp1903
a(I254
I204
I92
tp1904
a(I253
I141
I60
tp1905
a(I227
I26
I28
tp1906
asS'rdpu'
p1907
(lp1908
(I254
I235
I226
tp1909
a(I251
I180
I185
tp1910
a(I247
I104
I161
tp1911
a(I174
I1
I126
tp1912
asS'ylorbr'
p1913
(lp1914
(I255
I255
I212
tp1915
a(I254
I217
I142
tp1916
a(I254
I153
I41
tp1917
a(I204
I76
I2
tp1918
asS'greens'
p1919
(lp1920
(I237
I248
I233
tp1921
a(I186
I228
I179
tp1922
a(I116
I196
I118
tp1923
a(I35
I139
I69
tp1924
asS'gnbu'
p1925
(lp1926
(I240
I249
I232
tp1927
a(I186
I228
I188
tp1928
a(I123
I204
I196
tp1929
a(I43
I140
I190
tp1930
asS'ylgnbu'
p1931
(lp1932
(I255
I255
I204
tp1933
a(I161
I218
I180
tp1934
a(I65
I182
I196
tp1935
a(I34
I94
I168
tp1936
asS'bupu'
p1937
(lp1938
(I237
I248
I251
tp1939
a(I179
I205
I227
tp1940
a(I140
I150
I198
tp1941
a(I136
I65
I157
tp1942
asS'greys'
p1943
(lp1944
(I247
I247
I247
tp1945
a(I204
I204
I204
tp1946
a(I150
I150
I150
tp1947
a(I82
I82
I82
tp1948
asS'oranges'
p1949
(lp1950
(I254
I237
I222
tp1951
a(I253
I190
I133
tp1952
a(I253
I141
I60
tp1953
a(I217
I72
I1
tp1954
asS'orrd'
p1955
(lp1956
(I254
I240
I217
tp1957
a(I253
I204
I138
tp1958
a(I252
I141
I89
tp1959
a(I215
I48
I31
tp1960
asS'bugn'
p1961
(lp1962
(I237
I248
I251
tp1963
a(I178
I226
I226
tp1964
a(I102
I194
I164
tp1965
a(I35
I139
I69
tp1966
asS'pubu'
p1967
(lp1968
(I241
I238
I246
tp1969
a(I189
I201
I225
tp1970
a(I116
I169
I207
tp1971
a(I5
I112
I176
tp1972
asS'purd'
p1973
(lp1974
(I241
I238
I246
tp1975
a(I215
I181
I216
tp1976
a(I223
I101
I176
tp1977
a(I206
I18
I86
tp1978
asS'blues'
p1979
(lp1980
(I239
I243
I255
tp1981
a(I189
I215
I231
tp1982
a(I107
I174
I214
tp1983
a(I33
I113
I181
tp1984
asS'pubugn'
p1985
(lp1986
(I246
I239
I247
tp1987
a(I189
I201
I225
tp1988
a(I103
I169
I207
tp1989
a(I2
I129
I138
tp1990
asS'ylgn'
p1991
(lp1992
(I255
I255
I204
tp1993
a(I194
I230
I153
tp1994
a(I120
I198
I121
tp1995
a(I35
I132
I67
tp1996
asS'purples'
p1997
(lp1998
(I242
I240
I247
tp1999
a(I203
I201
I226
tp2000
a(I158
I154
I200
tp2001
a(I106
I81
I163
tp2002
assg237
(dp2003
S'reds'
p2004
(lp2005
(I254
I229
I217
tp2006
a(I252
I187
I161
tp2007
a(I252
I146
I114
tp2008
a(I251
I106
I74
tp2009
a(I239
I59
I44
tp2010
a(I203
I24
I29
tp2011
a(I153
I0
I13
tp2012
asS'ylorrd'
p2013
(lp2014
(I255
I255
I178
tp2015
a(I254
I217
I118
tp2016
a(I254
I178
I76
tp2017
a(I253
I141
I60
tp2018
a(I252
I78
I42
tp2019
a(I227
I26
I28
tp2020
a(I177
I0
I38
tp2021
asS'rdpu'
p2022
(lp2023
(I254
I235
I226
tp2024
a(I252
I197
I192
tp2025
a(I250
I159
I181
tp2026
a(I247
I104
I161
tp2027
a(I221
I52
I151
tp2028
a(I174
I1
I126
tp2029
a(I122
I1
I119
tp2030
asS'ylorbr'
p2031
(lp2032
(I255
I255
I212
tp2033
a(I254
I227
I145
tp2034
a(I254
I196
I79
tp2035
a(I254
I153
I41
tp2036
a(I236
I112
I20
tp2037
a(I204
I76
I2
tp2038
a(I140
I45
I4
tp2039
asS'greens'
p2040
(lp2041
(I237
I248
I233
tp2042
a(I199
I233
I192
tp2043
a(I161
I217
I155
tp2044
a(I116
I196
I118
tp2045
a(I65
I171
I93
tp2046
a(I35
I139
I69
tp2047
a(I0
I90
I50
tp2048
asS'gnbu'
p2049
(lp2050
(I240
I249
I232
tp2051
a(I204
I235
I197
tp2052
a(I168
I221
I181
tp2053
a(I123
I204
I196
tp2054
a(I78
I179
I211
tp2055
a(I43
I140
I190
tp2056
a(I8
I88
I158
tp2057
asS'ylgnbu'
p2058
(lp2059
(I255
I255
I204
tp2060
a(I199
I233
I180
tp2061
a(I127
I205
I187
tp2062
a(I65
I182
I196
tp2063
a(I29
I145
I192
tp2064
a(I34
I94
I168
tp2065
a(I12
I44
I132
tp2066
asS'bupu'
p2067
(lp2068
(I237
I248
I251
tp2069
a(I191
I211
I230
tp2070
a(I158
I188
I218
tp2071
a(I140
I150
I198
tp2072
a(I140
I107
I177
tp2073
a(I136
I65
I157
tp2074
a(I110
I1
I107
tp2075
asS'greys'
p2076
(lp2077
(I247
I247
I247
tp2078
a(I217
I217
I217
tp2079
a(I189
I189
I189
tp2080
a(I150
I150
I150
tp2081
a(I115
I115
I115
tp2082
a(I82
I82
I82
tp2083
a(I37
I37
I37
tp2084
asS'oranges'
p2085
(lp2086
(I254
I237
I222
tp2087
a(I253
I208
I162
tp2088
a(I253
I174
I107
tp2089
a(I253
I141
I60
tp2090
a(I241
I105
I19
tp2091
a(I217
I72
I1
tp2092
a(I140
I45
I4
tp2093
asS'orrd'
p2094
(lp2095
(I254
I240
I217
tp2096
a(I253
I212
I158
tp2097
a(I253
I187
I132
tp2098
a(I252
I141
I89
tp2099
a(I239
I101
I72
tp2100
a(I215
I48
I31
tp2101
a(I153
I0
I0
tp2102
asS'bugn'
p2103
(lp2104
(I237
I248
I251
tp2105
a(I204
I236
I230
tp2106
a(I153
I216
I201
tp2107
a(I102
I194
I164
tp2108
a(I65
I174
I118
tp2109
a(I35
I139
I69
tp2110
a(I0
I88
I36
tp2111
asS'pubu'
p2112
(lp2113
(I241
I238
I246
tp2114
a(I208
I209
I230
tp2115
a(I166
I189
I219
tp2116
a(I116
I169
I207
tp2117
a(I54
I144
I192
tp2118
a(I5
I112
I176
tp2119
a(I3
I78
I123
tp2120
asS'purd'
p2121
(lp2122
(I241
I238
I246
tp2123
a(I212
I185
I218
tp2124
a(I201
I148
I199
tp2125
a(I223
I101
I176
tp2126
a(I231
I41
I138
tp2127
a(I206
I18
I86
tp2128
a(I145
I0
I63
tp2129
asS'blues'
p2130
(lp2131
(I239
I243
I255
tp2132
a(I198
I219
I239
tp2133
a(I158
I202
I225
tp2134
a(I107
I174
I214
tp2135
a(I66
I146
I198
tp2136
a(I33
I113
I181
tp2137
a(I8
I69
I148
tp2138
asS'pubugn'
p2139
(lp2140
(I246
I239
I247
tp2141
a(I208
I209
I230
tp2142
a(I166
I189
I219
tp2143
a(I103
I169
I207
tp2144
a(I54
I144
I192
tp2145
a(I2
I129
I138
tp2146
a(I1
I100
I80
tp2147
asS'ylgn'
p2148
(lp2149
(I255
I255
I204
tp2150
a(I217
I240
I163
tp2151
a(I173
I221
I142
tp2152
a(I120
I198
I121
tp2153
a(I65
I171
I93
tp2154
a(I35
I132
I67
tp2155
a(I0
I90
I50
tp2156
asS'purples'
p2157
(lp2158
(I242
I240
I247
tp2159
a(I218
I218
I235
tp2160
a(I188
I189
I220
tp2161
a(I158
I154
I200
tp2162
a(I128
I125
I186
tp2163
a(I106
I81
I163
tp2164
a(I74
I20
I134
tp2165
assg311
(dp2166
S'reds'
p2167
(lp2168
(I254
I229
I217
tp2169
a(I252
I187
I161
tp2170
a(I252
I146
I114
tp2171
a(I251
I106
I74
tp2172
a(I222
I45
I38
tp2173
a(I165
I15
I21
tp2174
asS'ylorrd'
p2175
(lp2176
(I255
I255
I178
tp2177
a(I254
I217
I118
tp2178
a(I254
I178
I76
tp2179
a(I253
I141
I60
tp2180
a(I240
I59
I32
tp2181
a(I189
I0
I38
tp2182
asS'rdpu'
p2183
(lp2184
(I254
I235
I226
tp2185
a(I252
I197
I192
tp2186
a(I250
I159
I181
tp2187
a(I247
I104
I161
tp2188
a(I197
I27
I138
tp2189
a(I122
I1
I119
tp2190
asS'ylorbr'
p2191
(lp2192
(I255
I255
I212
tp2193
a(I254
I227
I145
tp2194
a(I254
I196
I79
tp2195
a(I254
I153
I41
tp2196
a(I217
I95
I14
tp2197
a(I153
I52
I4
tp2198
asS'greens'
p2199
(lp2200
(I237
I248
I233
tp2201
a(I199
I233
I192
tp2202
a(I161
I217
I155
tp2203
a(I116
I196
I118
tp2204
a(I49
I163
I84
tp2205
a(I0
I109
I44
tp2206
asS'gnbu'
p2207
(lp2208
(I240
I249
I232
tp2209
a(I204
I235
I197
tp2210
a(I168
I221
I181
tp2211
a(I123
I204
I196
tp2212
a(I67
I162
I202
tp2213
a(I8
I104
I172
tp2214
asS'ylgnbu'
p2215
(lp2216
(I255
I255
I204
tp2217
a(I199
I233
I180
tp2218
a(I127
I205
I187
tp2219
a(I65
I182
I196
tp2220
a(I44
I127
I184
tp2221
a(I37
I52
I148
tp2222
asS'bupu'
p2223
(lp2224
(I237
I248
I251
tp2225
a(I191
I211
I230
tp2226
a(I158
I188
I218
tp2227
a(I140
I150
I198
tp2228
a(I136
I86
I167
tp2229
a(I129
I15
I124
tp2230
asS'greys'
p2231
(lp2232
(I247
I247
I247
tp2233
a(I217
I217
I217
tp2234
a(I189
I189
I189
tp2235
a(I150
I150
I150
tp2236
a(I99
I99
I99
tp2237
a(I37
I37
I37
tp2238
asS'oranges'
p2239
(lp2240
(I254
I237
I222
tp2241
a(I253
I208
I162
tp2242
a(I253
I174
I107
tp2243
a(I253
I141
I60
tp2244
a(I230
I85
I13
tp2245
a(I166
I54
I3
tp2246
asS'orrd'
p2247
(lp2248
(I254
I240
I217
tp2249
a(I253
I212
I158
tp2250
a(I253
I187
I132
tp2251
a(I252
I141
I89
tp2252
a(I227
I74
I51
tp2253
a(I179
I0
I0
tp2254
asS'bugn'
p2255
(lp2256
(I237
I248
I251
tp2257
a(I204
I236
I230
tp2258
a(I153
I216
I201
tp2259
a(I102
I194
I164
tp2260
a(I44
I162
I95
tp2261
a(I0
I109
I44
tp2262
asS'pubu'
p2263
(lp2264
(I241
I238
I246
tp2265
a(I208
I209
I230
tp2266
a(I166
I189
I219
tp2267
a(I116
I169
I207
tp2268
a(I43
I140
I190
tp2269
a(I4
I90
I141
tp2270
asS'purd'
p2271
(lp2272
(I241
I238
I246
tp2273
a(I212
I185
I218
tp2274
a(I201
I148
I199
tp2275
a(I223
I101
I176
tp2276
a(I221
I28
I119
tp2277
a(I152
I0
I67
tp2278
asS'blues'
p2279
(lp2280
(I239
I243
I255
tp2281
a(I198
I219
I239
tp2282
a(I158
I202
I225
tp2283
a(I107
I174
I214
tp2284
a(I49
I130
I189
tp2285
a(I8
I81
I156
tp2286
asS'pubugn'
p2287
(lp2288
(I246
I239
I247
tp2289
a(I208
I209
I230
tp2290
a(I166
I189
I219
tp2291
a(I103
I169
I207
tp2292
a(I28
I144
I153
tp2293
a(I1
I108
I89
tp2294
asS'ylgn'
p2295
(lp2296
(I255
I255
I204
tp2297
a(I217
I240
I163
tp2298
a(I173
I221
I142
tp2299
a(I120
I198
I121
tp2300
a(I49
I163
I84
tp2301
a(I0
I104
I55
tp2302
asS'purples'
p2303
(lp2304
(I242
I240
I247
tp2305
a(I218
I218
I235
tp2306
a(I188
I189
I220
tp2307
a(I158
I154
I200
tp2308
a(I117
I107
I177
tp2309
a(I84
I39
I143
tp2310
assg377
(dp2311
S'reds'
p2312
(lp2313
(I255
I245
I240
tp2314
a(I254
I224
I210
tp2315
a(I252
I187
I161
tp2316
a(I252
I146
I114
tp2317
a(I251
I106
I74
tp2318
a(I239
I59
I44
tp2319
a(I203
I24
I29
tp2320
a(I165
I15
I21
tp2321
a(I103
I0
I13
tp2322
asS'ylorrd'
p2323
(lp2324
(I255
I255
I204
tp2325
a(I255
I237
I160
tp2326
a(I254
I217
I118
tp2327
a(I254
I178
I76
tp2328
a(I253
I141
I60
tp2329
a(I252
I78
I42
tp2330
a(I227
I26
I28
tp2331
a(I189
I0
I38
tp2332
a(I128
I0
I38
tp2333
asS'rdpu'
p2334
(lp2335
(I255
I247
I243
tp2336
a(I253
I224
I221
tp2337
a(I252
I197
I192
tp2338
a(I250
I159
I181
tp2339
a(I247
I104
I161
tp2340
a(I221
I52
I151
tp2341
a(I174
I1
I126
tp2342
a(I122
I1
I119
tp2343
a(I73
I0
I106
tp2344
asS'ylorbr'
p2345
(lp2346
(I255
I255
I229
tp2347
a(I255
I247
I188
tp2348
a(I254
I227
I145
tp2349
a(I254
I196
I79
tp2350
a(I254
I153
I41
tp2351
a(I236
I112
I20
tp2352
a(I204
I76
I2
tp2353
a(I153
I52
I4
tp2354
a(I102
I37
I6
tp2355
asS'greens'
p2356
(lp2357
(I247
I252
I245
tp2358
a(I229
I245
I224
tp2359
a(I199
I233
I192
tp2360
a(I161
I217
I155
tp2361
a(I116
I196
I118
tp2362
a(I65
I171
I93
tp2363
a(I35
I139
I69
tp2364
a(I0
I109
I44
tp2365
a(I0
I68
I27
tp2366
asS'gnbu'
p2367
(lp2368
(I247
I252
I240
tp2369
a(I224
I243
I219
tp2370
a(I204
I235
I197
tp2371
a(I168
I221
I181
tp2372
a(I123
I204
I196
tp2373
a(I78
I179
I211
tp2374
a(I43
I140
I190
tp2375
a(I8
I104
I172
tp2376
a(I8
I64
I129
tp2377
asS'ylgnbu'
p2378
(lp2379
(I255
I255
I217
tp2380
a(I237
I248
I177
tp2381
a(I199
I233
I180
tp2382
a(I127
I205
I187
tp2383
a(I65
I182
I196
tp2384
a(I29
I145
I192
tp2385
a(I34
I94
I168
tp2386
a(I37
I52
I148
tp2387
a(I8
I29
I88
tp2388
asS'bupu'
p2389
(lp2390
(I247
I252
I253
tp2391
a(I224
I236
I244
tp2392
a(I191
I211
I230
tp2393
a(I158
I188
I218
tp2394
a(I140
I150
I198
tp2395
a(I140
I107
I177
tp2396
a(I136
I65
I157
tp2397
a(I129
I15
I124
tp2398
a(I77
I0
I75
tp2399
asS'greys'
p2400
(lp2401
(I255
I255
I255
tp2402
a(I240
I240
I240
tp2403
a(I217
I217
I217
tp2404
a(I189
I189
I189
tp2405
a(I150
I150
I150
tp2406
a(I115
I115
I115
tp2407
a(I82
I82
I82
tp2408
a(I37
I37
I37
tp2409
a(I0
I0
I0
tp2410
asS'oranges'
p2411
(lp2412
(I255
I245
I235
tp2413
a(I254
I230
I206
tp2414
a(I253
I208
I162
tp2415
a(I253
I174
I107
tp2416
a(I253
I141
I60
tp2417
a(I241
I105
I19
tp2418
a(I217
I72
I1
tp2419
a(I166
I54
I3
tp2420
a(I127
I39
I4
tp2421
asS'orrd'
p2422
(lp2423
(I255
I247
I236
tp2424
a(I254
I232
I200
tp2425
a(I253
I212
I158
tp2426
a(I253
I187
I132
tp2427
a(I252
I141
I89
tp2428
a(I239
I101
I72
tp2429
a(I215
I48
I31
tp2430
a(I179
I0
I0
tp2431
a(I127
I0
I0
tp2432
asS'bugn'
p2433
(lp2434
(I247
I252
I253
tp2435
a(I229
I245
I249
tp2436
a(I204
I236
I230
tp2437
a(I153
I216
I201
tp2438
a(I102
I194
I164
tp2439
a(I65
I174
I118
tp2440
a(I35
I139
I69
tp2441
a(I0
I109
I44
tp2442
a(I0
I68
I27
tp2443
asS'pubu'
p2444
(lp2445
(I255
I247
I251
tp2446
a(I236
I231
I242
tp2447
a(I208
I209
I230
tp2448
a(I166
I189
I219
tp2449
a(I116
I169
I207
tp2450
a(I54
I144
I192
tp2451
a(I5
I112
I176
tp2452
a(I4
I90
I141
tp2453
a(I2
I56
I88
tp2454
asS'purd'
p2455
(lp2456
(I247
I244
I249
tp2457
a(I231
I225
I239
tp2458
a(I212
I185
I218
tp2459
a(I201
I148
I199
tp2460
a(I223
I101
I176
tp2461
a(I231
I41
I138
tp2462
a(I206
I18
I86
tp2463
a(I152
I0
I67
tp2464
a(I103
I0
I31
tp2465
asS'blues'
p2466
(lp2467
(I247
I251
I255
tp2468
a(I222
I235
I247
tp2469
a(I198
I219
I239
tp2470
a(I158
I202
I225
tp2471
a(I107
I174
I214
tp2472
a(I66
I146
I198
tp2473
a(I33
I113
I181
tp2474
a(I8
I81
I156
tp2475
a(I8
I48
I107
tp2476
asS'pubugn'
p2477
(lp2478
(I255
I247
I251
tp2479
a(I236
I226
I240
tp2480
a(I208
I209
I230
tp2481
a(I166
I189
I219
tp2482
a(I103
I169
I207
tp2483
a(I54
I144
I192
tp2484
a(I2
I129
I138
tp2485
a(I1
I108
I89
tp2486
a(I1
I70
I54
tp2487
asS'ylgn'
p2488
(lp2489
(I255
I255
I229
tp2490
a(I247
I252
I185
tp2491
a(I217
I240
I163
tp2492
a(I173
I221
I142
tp2493
a(I120
I198
I121
tp2494
a(I65
I171
I93
tp2495
a(I35
I132
I67
tp2496
a(I0
I104
I55
tp2497
a(I0
I69
I41
tp2498
asS'purples'
p2499
(lp2500
(I252
I251
I253
tp2501
a(I239
I237
I245
tp2502
a(I218
I218
I235
tp2503
a(I188
I189
I220
tp2504
a(I158
I154
I200
tp2505
a(I128
I125
I186
tp2506
a(I106
I81
I163
tp2507
a(I84
I39
I143
tp2508
a(I63
I0
I125
tp2509
assg423
(dp2510
S'reds'
p2511
(lp2512
(I255
I245
I240
tp2513
a(I254
I224
I210
tp2514
a(I252
I187
I161
tp2515
a(I252
I146
I114
tp2516
a(I251
I106
I74
tp2517
a(I239
I59
I44
tp2518
a(I203
I24
I29
tp2519
a(I153
I0
I13
tp2520
asS'ylorrd'
p2521
(lp2522
(I255
I255
I204
tp2523
a(I255
I237
I160
tp2524
a(I254
I217
I118
tp2525
a(I254
I178
I76
tp2526
a(I253
I141
I60
tp2527
a(I252
I78
I42
tp2528
a(I227
I26
I28
tp2529
a(I177
I0
I38
tp2530
asS'rdpu'
p2531
(lp2532
(I255
I247
I243
tp2533
a(I253
I224
I221
tp2534
a(I252
I197
I192
tp2535
a(I250
I159
I181
tp2536
a(I247
I104
I161
tp2537
a(I221
I52
I151
tp2538
a(I174
I1
I126
tp2539
a(I122
I1
I119
tp2540
asS'ylorbr'
p2541
(lp2542
(I255
I255
I229
tp2543
a(I255
I247
I188
tp2544
a(I254
I227
I145
tp2545
a(I254
I196
I79
tp2546
a(I254
I153
I41
tp2547
a(I236
I112
I20
tp2548
a(I204
I76
I2
tp2549
a(I140
I45
I4
tp2550
asS'greens'
p2551
(lp2552
(I247
I252
I245
tp2553
a(I229
I245
I224
tp2554
a(I199
I233
I192
tp2555
a(I161
I217
I155
tp2556
a(I116
I196
I118
tp2557
a(I65
I171
I93
tp2558
a(I35
I139
I69
tp2559
a(I0
I90
I50
tp2560
asS'gnbu'
p2561
(lp2562
(I247
I252
I240
tp2563
a(I224
I243
I219
tp2564
a(I204
I235
I197
tp2565
a(I168
I221
I181
tp2566
a(I123
I204
I196
tp2567
a(I78
I179
I211
tp2568
a(I43
I140
I190
tp2569
a(I8
I88
I158
tp2570
asS'ylgnbu'
p2571
(lp2572
(I255
I255
I217
tp2573
a(I237
I248
I177
tp2574
a(I199
I233
I180
tp2575
a(I127
I205
I187
tp2576
a(I65
I182
I196
tp2577
a(I29
I145
I192
tp2578
a(I34
I94
I168
tp2579
a(I12
I44
I132
tp2580
asS'bupu'
p2581
(lp2582
(I247
I252
I253
tp2583
a(I224
I236
I244
tp2584
a(I191
I211
I230
tp2585
a(I158
I188
I218
tp2586
a(I140
I150
I198
tp2587
a(I140
I107
I177
tp2588
a(I136
I65
I157
tp2589
a(I110
I1
I107
tp2590
asS'greys'
p2591
(lp2592
(I255
I255
I255
tp2593
a(I240
I240
I240
tp2594
a(I217
I217
I217
tp2595
a(I189
I189
I189
tp2596
a(I150
I150
I150
tp2597
a(I115
I115
I115
tp2598
a(I82
I82
I82
tp2599
a(I37
I37
I37
tp2600
asS'oranges'
p2601
(lp2602
(I255
I245
I235
tp2603
a(I254
I230
I206
tp2604
a(I253
I208
I162
tp2605
a(I253
I174
I107
tp2606
a(I253
I141
I60
tp2607
a(I241
I105
I19
tp2608
a(I217
I72
I1
tp2609
a(I140
I45
I4
tp2610
asS'orrd'
p2611
(lp2612
(I255
I247
I236
tp2613
a(I254
I232
I200
tp2614
a(I253
I212
I158
tp2615
a(I253
I187
I132
tp2616
a(I252
I141
I89
tp2617
a(I239
I101
I72
tp2618
a(I215
I48
I31
tp2619
a(I153
I0
I0
tp2620
asS'bugn'
p2621
(lp2622
(I247
I252
I253
tp2623
a(I229
I245
I249
tp2624
a(I204
I236
I230
tp2625
a(I153
I216
I201
tp2626
a(I102
I194
I164
tp2627
a(I65
I174
I118
tp2628
a(I35
I139
I69
tp2629
a(I0
I88
I36
tp2630
asS'pubu'
p2631
(lp2632
(I255
I247
I251
tp2633
a(I236
I231
I242
tp2634
a(I208
I209
I230
tp2635
a(I166
I189
I219
tp2636
a(I116
I169
I207
tp2637
a(I54
I144
I192
tp2638
a(I5
I112
I176
tp2639
a(I3
I78
I123
tp2640
asS'purd'
p2641
(lp2642
(I247
I244
I249
tp2643
a(I231
I225
I239
tp2644
a(I212
I185
I218
tp2645
a(I201
I148
I199
tp2646
a(I223
I101
I176
tp2647
a(I231
I41
I138
tp2648
a(I206
I18
I86
tp2649
a(I145
I0
I63
tp2650
asS'blues'
p2651
(lp2652
(I247
I251
I255
tp2653
a(I222
I235
I247
tp2654
a(I198
I219
I239
tp2655
a(I158
I202
I225
tp2656
a(I107
I174
I214
tp2657
a(I66
I146
I198
tp2658
a(I33
I113
I181
tp2659
a(I8
I69
I148
tp2660
asS'pubugn'
p2661
(lp2662
(I255
I247
I251
tp2663
a(I236
I226
I240
tp2664
a(I208
I209
I230
tp2665
a(I166
I189
I219
tp2666
a(I103
I169
I207
tp2667
a(I54
I144
I192
tp2668
a(I2
I129
I138
tp2669
a(I1
I100
I80
tp2670
asS'ylgn'
p2671
(lp2672
(I255
I255
I229
tp2673
a(I247
I252
I185
tp2674
a(I217
I240
I163
tp2675
a(I173
I221
I142
tp2676
a(I120
I198
I121
tp2677
a(I65
I171
I93
tp2678
a(I35
I132
I67
tp2679
a(I0
I90
I50
tp2680
asS'purples'
p2681
(lp2682
(I252
I251
I253
tp2683
a(I239
I237
I245
tp2684
a(I218
I218
I235
tp2685
a(I188
I189
I220
tp2686
a(I158
I154
I200
tp2687
a(I128
I125
I186
tp2688
a(I106
I81
I163
tp2689
a(I74
I20
I134
tp2690
asss.